(dp0
S'show_imports'
p1
I0
sS'prj_name'
p2
S'InCo NLTK Extensions'
p3
sS'docformat'
p4
S'restructuredtext'
p5
sS'inheritance'
p6
S'grouped'
p7
sS'help'
p8
NsS'modules'
p9
(VD:/Matias/Proyecto-PLN/Codigo/inco-pln-nltk-extensions/inco/nlp/freeling_base.py
p10
VD:/Matias/Proyecto-PLN/Codigo/inco-pln-nltk-extensions/inco/nlp/parse/freeling.py
p11
VD:/Matias/Proyecto-PLN/Codigo/inco-pln-nltk-extensions/inco/nlp/parse/maltparser.py
p12
VD:/Matias/Proyecto-PLN/Codigo/inco-pln-nltk-extensions/inco/nlp/parse/stanford/stanford_shift_reduce.py
p13
VD:/Matias/Proyecto-PLN/Codigo/inco-pln-nltk-extensions/inco/nlp/parse/tree/freeling_tree_builder.py
p14
VD:/Matias/Proyecto-PLN/Codigo/inco-pln-nltk-extensions/inco/nlp/parse/tree/maltparser_tree_builder.py
p15
VD:/Matias/Proyecto-PLN/Codigo/inco-pln-nltk-extensions/inco/nlp/tag/convert/tag_converter.py
p16
VD:/Matias/Proyecto-PLN/Codigo/inco-pln-nltk-extensions/inco/nlp/tag/freeling.py
p17
VD:/Matias/Proyecto-PLN/Codigo/inco-pln-nltk-extensions/inco/nlp/tag/treetagger.py
p18
VD:/Matias/Proyecto-PLN/Codigo/inco-pln-nltk-extensions/inco/nlp/tagging_constants.py
p19
VD:/Matias/Proyecto-PLN/Codigo/inco-pln-nltk-extensions/inco/nlp/tokenize/freeling.py
p20
VD:/Matias/Proyecto-PLN/Codigo/inco-pln-nltk-extensions/inco/nlp/utils/dot_language_converter.py
p21
VD:/Matias/Proyecto-PLN/Codigo/inco-pln-nltk-extensions/inco/nlp/utils/frontend/configuration_manager.py
p22
VD:/Matias/Proyecto-PLN/Codigo/inco-pln-nltk-extensions/inco/nlp/utils/frontend/control_parse.py
p23
VD:/Matias/Proyecto-PLN/Codigo/inco-pln-nltk-extensions/inco/nlp/utils/frontend/control_tag.py
p24
VD:/Matias/Proyecto-PLN/Codigo/inco-pln-nltk-extensions/inco/nlp/utils/frontend/control_tokenize.py
p25
VD:/Matias/Proyecto-PLN/Codigo/inco-pln-nltk-extensions/inco/nlp/utils/frontend/frontend.py
p26
VD:/Matias/Proyecto-PLN/Codigo/inco-pln-nltk-extensions/inco/nlp/utils/frontend/menu_bar.py
p27
VD:/Matias/Proyecto-PLN/Codigo/inco-pln-nltk-extensions/inco/nlp/utils/frontend/ui_utils.py
p28
tp29
sS'private'
p30
I1
sS'prj_url'
p31
NsS'introspect_or_parse'
p32
S'introspect'
p33
sS'frames'
p34
I1
sS'css'
p35
S'black'
p36
sS'target'
p37
S'D:/Matias/Proyecto-PLN/Codigo/inco-pln-nltk-extensions/doc'
p38
s.