(dp0
S'treetagger_path'
p1
S'None'
p2
sS'maltparser_model_path'
p3
S'None'
p4
sS'freeling_path'
p5
VD:/Matias/Proyecto-PLN/freeling-3.1-win/freeling-3.1-win/bin/analyzer.exe
p6
sS'stanfordsr_model_path'
p7
S'None'
p8
sS'maltparser_path'
p9
S'None'
p10
sS'stanfordsr_path'
p11
S'None'
p12
s.